target datalayout = "e-m:e-p270:32:32-p271:32:32-p272:64:64-i64:64-i128:128-f80:128-n8:16:32:64-S128"
target triple = "x86_64-pc-linux-gnu"

%struct.DdManager = type { %struct.DdNode, ptr, ptr, ptr, ptr, ptr, ptr, ptr, i32, i32, double, double, double, i32, i32, i32, i32, i32, i32, ptr, ptr, %struct.DdSubtable, i32, i32, i32, i32, i32, i32, i32, double, i32, i32, i32, ptr, i64, double, i32, ptr, ptr, ptr, ptr, ptr, ptr, ptr, i32, ptr, ptr, ptr, ptr, ptr, ptr, i32, i32, i32, double, i32, i32, i32, i32, double, double, i32, i32, i32, i32, i32, i32, i32, i32, i32, ptr, ptr, i32, i32, i32, i32, i32, i32, ptr, ptr, ptr, ptr, ptr, ptr, ptr, ptr, i32, i64, i64, i64, i32, i64, i64, double, double, double, double, double, double, i32, ptr, ptr, i64 }
%struct.DdNode = type { i32, i32, ptr, %union.anon, i64 }
%union.anon = type { %struct.DdChildren }
%struct.DdChildren = type { ptr, ptr }
%struct.DdSubtable = type { ptr, i32, i32, i32, i32, i32, i32, i32, i32, i32, i32, i32 }

; Function Attrs: nounwind uwtable
define ptr @Cudd_addComputeCube(ptr noundef %0, ptr noundef %1, ptr noundef %2, i32 noundef %3) #0 {
  %5 = alloca ptr, align 8
  %6 = alloca ptr, align 8
  %7 = alloca ptr, align 8
  %8 = alloca ptr, align 8
  %9 = alloca i32, align 4
  %10 = alloca ptr, align 8
  %11 = alloca ptr, align 8
  %12 = alloca ptr, align 8
  %13 = alloca i32, align 4
  store ptr %0, ptr %6, align 8
  store ptr %1, ptr %7, align 8
  store ptr %2, ptr %8, align 8
  store i32 %3, ptr %9, align 4
  %14 = load ptr, ptr %6, align 8
  %15 = getelementptr inbounds %struct.DdManager, ptr %14, i32 0, i32 1
  %16 = load ptr, ptr %15, align 8
  store ptr %16, ptr %10, align 8
  %17 = load ptr, ptr %10, align 8
  %18 = ptrtoint ptr %17 to i64
  %19 = and i64 %18, -2
  %20 = inttoptr i64 %19 to ptr
  %21 = getelementptr inbounds %struct.DdNode, ptr %20, i32 0, i32 1
  %22 = load i32, ptr %21, align 4
  %23 = add i32 %22, 1
  store i32 %23, ptr %21, align 4
  %24 = load ptr, ptr %6, align 8
  %25 = getelementptr inbounds %struct.DdManager, ptr %24, i32 0, i32 2
  %26 = load ptr, ptr %25, align 8
  store ptr %26, ptr %11, align 8
  %27 = load i32, ptr %9, align 4
  %28 = sub nsw i32 %27, 1
  store i32 %28, ptr %13, align 4
  br label %29

29:                                               ; preds = %79, %4
  %30 = load i32, ptr %13, align 4
  %31 = icmp sge i32 %30, 0
  br i1 %31, label %32, label %82

32:                                               ; preds = %29
  %33 = load ptr, ptr %8, align 8
  %34 = icmp eq ptr %33, null
  br i1 %34, label %42, label %35

35:                                               ; preds = %32
  %36 = load ptr, ptr %8, align 8
  %37 = load i32, ptr %13, align 4
  %38 = sext i32 %37 to i64
  %39 = getelementptr inbounds i32, ptr %36, i64 %38
  %40 = load i32, ptr %39, align 4
  %41 = icmp ne i32 %40, 0
  br i1 %41, label %42, label %52

42:                                               ; preds = %35, %32
  %43 = load ptr, ptr %6, align 8
  %44 = load ptr, ptr %7, align 8
  %45 = load i32, ptr %13, align 4
  %46 = sext i32 %45 to i64
  %47 = getelementptr inbounds ptr, ptr %44, i64 %46
  %48 = load ptr, ptr %47, align 8
  %49 = load ptr, ptr %10, align 8
  %50 = load ptr, ptr %11, align 8
  %51 = call ptr @Cudd_addIte(ptr noundef %43, ptr noundef %48, ptr noundef %49, ptr noundef %50)
  store ptr %51, ptr %12, align 8
  br label %62

52:                                               ; preds = %35
  %53 = load ptr, ptr %6, align 8
  %54 = load ptr, ptr %7, align 8
  %55 = load i32, ptr %13, align 4
  %56 = sext i32 %55 to i64
  %57 = getelementptr inbounds ptr, ptr %54, i64 %56
  %58 = load ptr, ptr %57, align 8
  %59 = load ptr, ptr %11, align 8
  %60 = load ptr, ptr %10, align 8
  %61 = call ptr @Cudd_addIte(ptr noundef %53, ptr noundef %58, ptr noundef %59, ptr noundef %60)
  store ptr %61, ptr %12, align 8
  br label %62

62:                                               ; preds = %52, %42
  %63 = load ptr, ptr %12, align 8
  %64 = icmp eq ptr %63, null
  br i1 %64, label %65, label %68

65:                                               ; preds = %62
  %66 = load ptr, ptr %6, align 8
  %67 = load ptr, ptr %10, align 8
  call void @Cudd_RecursiveDeref(ptr noundef %66, ptr noundef %67)
  store ptr null, ptr %5, align 8
  br label %91

68:                                               ; preds = %62
  %69 = load ptr, ptr %12, align 8
  %70 = ptrtoint ptr %69 to i64
  %71 = and i64 %70, -2
  %72 = inttoptr i64 %71 to ptr
  %73 = getelementptr inbounds %struct.DdNode, ptr %72, i32 0, i32 1
  %74 = load i32, ptr %73, align 4
  %75 = add i32 %74, 1
  store i32 %75, ptr %73, align 4
  %76 = load ptr, ptr %6, align 8
  %77 = load ptr, ptr %10, align 8
  call void @Cudd_RecursiveDeref(ptr noundef %76, ptr noundef %77)
  %78 = load ptr, ptr %12, align 8
  store ptr %78, ptr %10, align 8
  br label %79

79:                                               ; preds = %68
  %80 = load i32, ptr %13, align 4
  %81 = add nsw i32 %80, -1
  store i32 %81, ptr %13, align 4
  br label %29, !llvm.loop !70

82:                                               ; preds = %29
  %83 = load ptr, ptr %10, align 8
  %84 = ptrtoint ptr %83 to i64
  %85 = and i64 %84, -2
  %86 = inttoptr i64 %85 to ptr
  %87 = getelementptr inbounds %struct.DdNode, ptr %86, i32 0, i32 1
  %88 = load i32, ptr %87, align 4
  %89 = add i32 %88, -1
  store i32 %89, ptr %87, align 4
  %90 = load ptr, ptr %10, align 8
  store ptr %90, ptr %5, align 8
  br label %91

91:                                               ; preds = %82, %65
  %92 = load ptr, ptr %5, align 8
  ret ptr %92
}