; Function Attrs: nounwind uwtable
define ptr @Cudd_addComputeCube(ptr noundef %0, ptr noundef readonly captures(none) %1, ptr noundef readonly %2, i32 noundef %3) local_unnamed_addr #0 {
  %5 = getelementptr inbounds nuw i8, ptr %0, i64 40
  %6 = load ptr, ptr %5, align 8
  %7 = ptrtoint ptr %6 to i64
  %8 = and i64 %7, -2
  %9 = inttoptr i64 %8 to ptr
  %10 = getelementptr inbounds nuw i8, ptr %9, i64 4
  %11 = load i32, ptr %10, align 4
  %12 = add i32 %11, 1
  store i32 %12, ptr %10, align 4
  %13 = getelementptr inbounds nuw i8, ptr %0, i64 48
  %14 = load ptr, ptr %13, align 8
  %15 = icmp sgt i32 %3, 0
  br i1 %15, label %.lr.ph, label %._crit_edge

.lr.ph:                                           ; preds = %4
  %.033 = add nsw i32 %3, -1
  %16 = icmp eq ptr %2, null
  %17 = zext nneg i32 %.033 to i64
  br i1 %16, label %.lr.ph.split.us, label %.lr.ph.split

.lr.ph.split.us:                                  ; preds = %.lr.ph, %22
  %indvars.iv44 = phi i64 [ %indvars.iv.next45, %22 ], [ %17, %.lr.ph ]
  %.03034.us = phi ptr [ %20, %22 ], [ %6, %.lr.ph ]
  %18 = getelementptr inbounds nuw ptr, ptr %1, i64 %indvars.iv44
  %19 = load ptr, ptr %18, align 8
  %20 = tail call ptr @Cudd_addIte(ptr noundef %0, ptr noundef %19, ptr noundef %.03034.us, ptr noundef %14) #23
  %21 = icmp eq ptr %20, null
  br i1 %21, label %.split.us, label %22

22:                                               ; preds = %.lr.ph.split.us
  %23 = ptrtoint ptr %20 to i64
  %24 = and i64 %23, -2
  %25 = inttoptr i64 %24 to ptr
  %26 = getelementptr inbounds nuw i8, ptr %25, i64 4
  %27 = load i32, ptr %26, align 4
  %28 = add i32 %27, 1
  store i32 %28, ptr %26, align 4
  tail call void @Cudd_RecursiveDeref(ptr noundef %0, ptr noundef %.03034.us) #23
  %indvars.iv.next45 = add nsw i64 %indvars.iv44, -1
  %29 = icmp sgt i64 %indvars.iv44, 0
  br i1 %29, label %.lr.ph.split.us, label %._crit_edge, !llvm.loop !61

.lr.ph.split:                                     ; preds = %.lr.ph, %40
  %indvars.iv = phi i64 [ %indvars.iv.next, %40 ], [ %17, %.lr.ph ]
  %.03034 = phi ptr [ %.028, %40 ], [ %6, %.lr.ph ]
  %30 = getelementptr inbounds nuw i32, ptr %2, i64 %indvars.iv
  %31 = load i32, ptr %30, align 4
  %.not = icmp eq i32 %31, 0
  %32 = getelementptr inbounds nuw ptr, ptr %1, i64 %indvars.iv
  %33 = load ptr, ptr %32, align 8
  br i1 %.not, label %36, label %34

34:                                               ; preds = %.lr.ph.split
  %35 = tail call ptr @Cudd_addIte(ptr noundef %0, ptr noundef %33, ptr noundef %.03034, ptr noundef %14) #23
  br label %38

36:                                               ; preds = %.lr.ph.split
  %37 = tail call ptr @Cudd_addIte(ptr noundef %0, ptr noundef %33, ptr noundef %14, ptr noundef %.03034) #23
  br label %38

38:                                               ; preds = %36, %34
  %.028 = phi ptr [ %35, %34 ], [ %37, %36 ]
  %39 = icmp eq ptr %.028, null
  br i1 %39, label %.split.us, label %40

.split.us:                                        ; preds = %38, %.lr.ph.split.us
  %.us-phi = phi ptr [ %.03034.us, %.lr.ph.split.us ], [ %.03034, %38 ]
  tail call void @Cudd_RecursiveDeref(ptr noundef %0, ptr noundef %.us-phi) #23
  br label %51

40:                                               ; preds = %38
  %41 = ptrtoint ptr %.028 to i64
  %42 = and i64 %41, -2
  %43 = inttoptr i64 %42 to ptr
  %44 = getelementptr inbounds nuw i8, ptr %43, i64 4
  %45 = load i32, ptr %44, align 4
  %46 = add i32 %45, 1
  store i32 %46, ptr %44, align 4
  tail call void @Cudd_RecursiveDeref(ptr noundef %0, ptr noundef %.03034) #23
  %indvars.iv.next = add nsw i64 %indvars.iv, -1
  %47 = icmp sgt i64 %indvars.iv, 0
  br i1 %47, label %.lr.ph.split, label %._crit_edge, !llvm.loop !61

._crit_edge:                                      ; preds = %40, %22, %4
  %.pre-phi48 = phi ptr [ %9, %4 ], [ %25, %22 ], [ %43, %40 ]
  %.030.lcssa = phi ptr [ %6, %4 ], [ %20, %22 ], [ %.028, %40 ]
  %48 = getelementptr inbounds nuw i8, ptr %.pre-phi48, i64 4
  %49 = load i32, ptr %48, align 4
  %50 = add i32 %49, -1
  store i32 %50, ptr %48, align 4
  br label %51

51:                                               ; preds = %._crit_edge, %.split.us
  %.029 = phi ptr [ null, %.split.us ], [ %.030.lcssa, %._crit_edge ]
  ret ptr %.029
}